---
triple:          'arm64-apple-darwin'
binary-path:     main
relocations:
  - { offset: 0x3F, size: 0x8, addend: 0x0, symName: _bgColor, symObjAddr: 0xD1C, symBinAddr: 0x100008000, symSize: 0x0 }
  - { offset: 0x3ABC, size: 0x8, addend: 0x0, symName: __ZNSt3__124__put_character_sequenceB8ne200100IcNS_11char_traitsIcEEEERNS_13basic_ostreamIT_T0_EES7_PKS4_m, symObjAddr: 0x2BC, symBinAddr: 0x1000032DC, symSize: 0x1E4 }
  - { offset: 0x4B89, size: 0x8, addend: 0x0, symName: __ZNSt3__1lsB8ne200100INS_11char_traitsIcEEEERNS_13basic_ostreamIcT_EES6_PKc, symObjAddr: 0x274, symBinAddr: 0x100003294, symSize: 0x48 }
  - { offset: 0x4BCF, size: 0x8, addend: 0x0, symName: __ZNSt3__116__pad_and_outputB8ne200100IcNS_11char_traitsIcEEEENS_19ostreambuf_iteratorIT_T0_EES6_PKS4_S8_S8_RNS_8ios_baseES4_, symObjAddr: 0x4E0, symBinAddr: 0x100003500, symSize: 0x214 }
  - { offset: 0x4C93, size: 0x8, addend: 0x0, symName: __ZNSt3__112__to_addressB8ne200100IcEEPT_S2_, symObjAddr: 0x994, symBinAddr: 0x1000039B4, symSize: 0x14 }
  - { offset: 0x4CC8, size: 0x8, addend: 0x0, symName: __ZNSt3__19use_facetB8ne200100INS_5ctypeIcEEEERKT_RKNS_6localeE, symObjAddr: 0xBF8, symBinAddr: 0x100003C18, symSize: 0x2C }
  - { offset: 0x51F5, size: 0x8, addend: 0x0, symName: __ZNSt3__118__constexpr_strlenB8ne200100IcEEmPKT_, symObjAddr: 0xC8C, symBinAddr: 0x100003CAC, symSize: 0x24 }
  - { offset: 0x61A1, size: 0x8, addend: 0x0, symName: __Z12key_callbackP10GLFWwindowiiii, symObjAddr: 0x0, symBinAddr: 0x100003020, symSize: 0x64 }
  - { offset: 0x6201, size: 0x8, addend: 0x0, symName: _main, symObjAddr: 0x64, symBinAddr: 0x100003084, symSize: 0x210 }
  - { offset: 0x6229, size: 0x8, addend: 0x0, symName: __ZNSt3__111char_traitsIcE6lengthB8ne200100EPKc, symObjAddr: 0x4A0, symBinAddr: 0x1000034C0, symSize: 0x24 }
  - { offset: 0x6269, size: 0x8, addend: 0x0, symName: __ZNKSt3__113basic_ostreamIcNS_11char_traitsIcEEE6sentrycvbB8ne200100Ev, symObjAddr: 0x4C4, symBinAddr: 0x1000034E4, symSize: 0x1C }
  - { offset: 0x628D, size: 0x8, addend: 0x0, symName: __ZNSt3__119ostreambuf_iteratorIcNS_11char_traitsIcEEEC1B8ne200100ERNS_13basic_ostreamIcS2_EE, symObjAddr: 0x6F4, symBinAddr: 0x100003714, symSize: 0x34 }
  - { offset: 0x62C3, size: 0x8, addend: 0x0, symName: __ZNKSt3__18ios_base5flagsB8ne200100Ev, symObjAddr: 0x728, symBinAddr: 0x100003748, symSize: 0x18 }
  - { offset: 0x62E9, size: 0x8, addend: 0x0, symName: __ZNKSt3__19basic_iosIcNS_11char_traitsIcEEE4fillB8ne200100Ev, symObjAddr: 0x740, symBinAddr: 0x100003760, symSize: 0x64 }
  - { offset: 0x630D, size: 0x8, addend: 0x0, symName: __ZNKSt3__119ostreambuf_iteratorIcNS_11char_traitsIcEEE6failedB8ne200100Ev, symObjAddr: 0x7A4, symBinAddr: 0x1000037C4, symSize: 0x20 }
  - { offset: 0x6331, size: 0x8, addend: 0x0, symName: __ZNSt3__19basic_iosIcNS_11char_traitsIcEEE8setstateB8ne200100Ej, symObjAddr: 0x7C4, symBinAddr: 0x1000037E4, symSize: 0x2C }
  - { offset: 0x6364, size: 0x8, addend: 0x0, symName: __ZNKSt3__18ios_base5widthB8ne200100Ev, symObjAddr: 0x800, symBinAddr: 0x100003820, symSize: 0x18 }
  - { offset: 0x638A, size: 0x8, addend: 0x0, symName: __ZNSt3__115basic_streambufIcNS_11char_traitsIcEEE5sputnB8ne200100EPKcl, symObjAddr: 0x818, symBinAddr: 0x100003838, symSize: 0x3C }
  - { offset: 0x63CA, size: 0x8, addend: 0x0, symName: __ZNSt3__112basic_stringIcNS_11char_traitsIcEENS_9allocatorIcEEEC1B8ne200100Emc, symObjAddr: 0x854, symBinAddr: 0x100003874, symSize: 0x3C }
  - { offset: 0x6410, size: 0x8, addend: 0x0, symName: __ZNSt3__112basic_stringIcNS_11char_traitsIcEENS_9allocatorIcEEE4dataB8ne200100Ev, symObjAddr: 0x890, symBinAddr: 0x1000038B0, symSize: 0x28 }
  - { offset: 0x6434, size: 0x8, addend: 0x0, symName: __ZNSt3__18ios_base5widthB8ne200100El, symObjAddr: 0x8B8, symBinAddr: 0x1000038D8, symSize: 0x2C }
  - { offset: 0x6478, size: 0x8, addend: 0x0, symName: __ZNSt3__112basic_stringIcNS_11char_traitsIcEENS_9allocatorIcEEEC2B8ne200100Emc, symObjAddr: 0x8E4, symBinAddr: 0x100003904, symSize: 0x44 }
  - { offset: 0x64BE, size: 0x8, addend: 0x0, symName: __ZNSt3__19allocatorIcEC1B8ne200100Ev, symObjAddr: 0x928, symBinAddr: 0x100003948, symSize: 0x2C }
  - { offset: 0x64E6, size: 0x8, addend: 0x0, symName: __ZNSt3__19allocatorIcEC2B8ne200100Ev, symObjAddr: 0x954, symBinAddr: 0x100003974, symSize: 0x2C }
  - { offset: 0x650E, size: 0x8, addend: 0x0, symName: __ZNSt3__116__non_trivial_ifILb1ENS_9allocatorIcEEEC2B8ne200100Ev, symObjAddr: 0x980, symBinAddr: 0x1000039A0, symSize: 0x14 }
  - { offset: 0x6536, size: 0x8, addend: 0x0, symName: __ZNSt3__112basic_stringIcNS_11char_traitsIcEENS_9allocatorIcEEE13__get_pointerB8ne200100Ev, symObjAddr: 0x9A8, symBinAddr: 0x1000039C8, symSize: 0x54 }
  - { offset: 0x655A, size: 0x8, addend: 0x0, symName: __ZNKSt3__112basic_stringIcNS_11char_traitsIcEENS_9allocatorIcEEE9__is_longB8ne200100Ev, symObjAddr: 0x9FC, symBinAddr: 0x100003A1C, symSize: 0x24 }
  - { offset: 0x657E, size: 0x8, addend: 0x0, symName: __ZNSt3__112basic_stringIcNS_11char_traitsIcEENS_9allocatorIcEEE18__get_long_pointerB8ne200100Ev, symObjAddr: 0xA20, symBinAddr: 0x100003A40, symSize: 0x18 }
  - { offset: 0x65A2, size: 0x8, addend: 0x0, symName: __ZNSt3__112basic_stringIcNS_11char_traitsIcEENS_9allocatorIcEEE19__get_short_pointerB8ne200100Ev, symObjAddr: 0xA38, symBinAddr: 0x100003A58, symSize: 0x24 }
  - { offset: 0x65C6, size: 0x8, addend: 0x0, symName: __ZNSt3__114pointer_traitsIPcE10pointer_toB8ne200100ERc, symObjAddr: 0xA5C, symBinAddr: 0x100003A7C, symSize: 0x14 }
  - { offset: 0x65E8, size: 0x8, addend: 0x0, symName: __ZNSt3__119ostreambuf_iteratorIcNS_11char_traitsIcEEEC2B8ne200100ERNS_13basic_ostreamIcS2_EE, symObjAddr: 0xA70, symBinAddr: 0x100003A90, symSize: 0x54 }
  - { offset: 0x661E, size: 0x8, addend: 0x0, symName: __ZNKSt3__19basic_iosIcNS_11char_traitsIcEEE5rdbufB8ne200100Ev, symObjAddr: 0xAC4, symBinAddr: 0x100003AE4, symSize: 0x24 }
  - { offset: 0x6642, size: 0x8, addend: 0x0, symName: __ZNKSt3__18ios_base5rdbufB8ne200100Ev, symObjAddr: 0xAE8, symBinAddr: 0x100003B08, symSize: 0x18 }
  - { offset: 0x6666, size: 0x8, addend: 0x0, symName: __ZNKSt3__118_SentinelValueFillINS_11char_traitsIcEEE8__is_setB8ne200100Ev, symObjAddr: 0xB00, symBinAddr: 0x100003B20, symSize: 0x38 }
  - { offset: 0x668A, size: 0x8, addend: 0x0, symName: __ZNKSt3__19basic_iosIcNS_11char_traitsIcEEE5widenB8ne200100Ec, symObjAddr: 0xB38, symBinAddr: 0x100003B58, symSize: 0x80 }
  - { offset: 0x66BD, size: 0x8, addend: 0x0, symName: __ZNSt3__118_SentinelValueFillINS_11char_traitsIcEEEaSB8ne200100Ei, symObjAddr: 0xBB8, symBinAddr: 0x100003BD8, symSize: 0x20 }
  - { offset: 0x66F0, size: 0x8, addend: 0x0, symName: __ZNKSt3__118_SentinelValueFillINS_11char_traitsIcEEE5__getB8ne200100Ev, symObjAddr: 0xBD8, symBinAddr: 0x100003BF8, symSize: 0x18 }
  - { offset: 0x6714, size: 0x8, addend: 0x0, symName: __ZNSt3__111char_traitsIcE3eofB8ne200100Ev, symObjAddr: 0xBF0, symBinAddr: 0x100003C10, symSize: 0x8 }
  - { offset: 0x6769, size: 0x8, addend: 0x0, symName: __ZNKSt3__15ctypeIcE5widenB8ne200100Ec, symObjAddr: 0xC24, symBinAddr: 0x100003C44, symSize: 0x34 }
  - { offset: 0x679C, size: 0x8, addend: 0x0, symName: __ZNSt3__18ios_base8setstateB8ne200100Ej, symObjAddr: 0xC58, symBinAddr: 0x100003C78, symSize: 0x34 }
...
